target datalayout = "e-m:e-p270:32:32-p271:32:32-p272:64:64-i64:64-i128:128-f80:128-n8:16:32:64-S128"
target triple = "x86_64-pc-linux-gnu"

; Function Attrs: nounwind uwtable
define i32 @cli_bcapi_version_compare(ptr noundef %0, ptr noundef %1, i32 noundef %2, ptr noundef %3, i32 noundef %4) #0 {
  %6 = alloca i32, align 4
  %7 = alloca ptr, align 8
  %8 = alloca ptr, align 8
  %9 = alloca i32, align 4
  %10 = alloca ptr, align 8
  %11 = alloca i32, align 4
  %12 = alloca i32, align 4
  %13 = alloca i32, align 4
  %14 = alloca i64, align 8
  %15 = alloca i64, align 8
  store ptr %0, ptr %7, align 8
  store ptr %1, ptr %8, align 8
  store i32 %2, ptr %9, align 4
  store ptr %3, ptr %10, align 8
  store i32 %4, ptr %11, align 4
  store i32 0, ptr %12, align 4
  store i32 0, ptr %13, align 4
  store i64 0, ptr %14, align 8
  store i64 0, ptr %15, align 8
  br label %16

16:                                               ; preds = %222, %5
  br label %17

17:                                               ; preds = %72, %16
  %18 = load i32, ptr %12, align 4
  %19 = load i32, ptr %9, align 4
  %20 = icmp ult i32 %18, %19
  br i1 %20, label %21, label %70

21:                                               ; preds = %17
  %22 = load i32, ptr %13, align 4
  %23 = load i32, ptr %11, align 4
  %24 = icmp ult i32 %22, %23
  br i1 %24, label %25, label %70

25:                                               ; preds = %21
  %26 = load ptr, ptr %8, align 8
  %27 = load i32, ptr %12, align 4
  %28 = zext i32 %27 to i64
  %29 = getelementptr inbounds i8, ptr %26, i64 %28
  %30 = load i8, ptr %29, align 1
  %31 = zext i8 %30 to i32
  %32 = load ptr, ptr %10, align 8
  %33 = load i32, ptr %13, align 4
  %34 = zext i32 %33 to i64
  %35 = getelementptr inbounds i8, ptr %32, i64 %34
  %36 = load i8, ptr %35, align 1
  %37 = zext i8 %36 to i32
  %38 = icmp eq i32 %31, %37
  br i1 %38, label %39, label %70

39:                                               ; preds = %25
  %40 = call ptr @__ctype_b_loc() #9
  %41 = load ptr, ptr %40, align 8
  %42 = load ptr, ptr %8, align 8
  %43 = load i32, ptr %12, align 4
  %44 = zext i32 %43 to i64
  %45 = getelementptr inbounds i8, ptr %42, i64 %44
  %46 = load i8, ptr %45, align 1
  %47 = zext i8 %46 to i32
  %48 = sext i32 %47 to i64
  %49 = getelementptr inbounds i16, ptr %41, i64 %48
  %50 = load i16, ptr %49, align 2
  %51 = zext i16 %50 to i32
  %52 = and i32 %51, 2048
  %53 = icmp ne i32 %52, 0
  br i1 %53, label %70, label %54

54:                                               ; preds = %39
  %55 = call ptr @__ctype_b_loc() #9
  %56 = load ptr, ptr %55, align 8
  %57 = load ptr, ptr %10, align 8
  %58 = load i32, ptr %13, align 4
  %59 = zext i32 %58 to i64
  %60 = getelementptr inbounds i8, ptr %57, i64 %59
  %61 = load i8, ptr %60, align 1
  %62 = zext i8 %61 to i32
  %63 = sext i32 %62 to i64
  %64 = getelementptr inbounds i16, ptr %56, i64 %63
  %65 = load i16, ptr %64, align 2
  %66 = zext i16 %65 to i32
  %67 = and i32 %66, 2048
  %68 = icmp ne i32 %67, 0
  %69 = xor i1 %68, true
  br label %70

70:                                               ; preds = %54, %39, %25, %21, %17
  %71 = phi i1 [ false, %39 ], [ false, %25 ], [ false, %21 ], [ false, %17 ], [ %69, %54 ]
  br i1 %71, label %72, label %77

72:                                               ; preds = %70
  %73 = load i32, ptr %12, align 4
  %74 = add i32 %73, 1
  store i32 %74, ptr %12, align 4
  %75 = load i32, ptr %13, align 4
  %76 = add i32 %75, 1
  store i32 %76, ptr %13, align 4
  br label %17

77:                                               ; preds = %70
  %78 = load i32, ptr %12, align 4
  %79 = load i32, ptr %9, align 4
  %80 = icmp eq i32 %78, %79
  br i1 %80, label %81, label %86

81:                                               ; preds = %77
  %82 = load i32, ptr %13, align 4
  %83 = load i32, ptr %11, align 4
  %84 = icmp eq i32 %82, %83
  br i1 %84, label %85, label %86

85:                                               ; preds = %81
  store i32 0, ptr %6, align 4
  br label %223

86:                                               ; preds = %81, %77
  %87 = load i32, ptr %12, align 4
  %88 = load i32, ptr %9, align 4
  %89 = icmp eq i32 %87, %88
  br i1 %89, label %90, label %91

90:                                               ; preds = %86
  store i32 -1, ptr %6, align 4
  br label %223

91:                                               ; preds = %86
  %92 = load i32, ptr %13, align 4
  %93 = load i32, ptr %11, align 4
  %94 = icmp eq i32 %92, %93
  br i1 %94, label %95, label %96

95:                                               ; preds = %91
  store i32 1, ptr %6, align 4
  br label %223

96:                                               ; preds = %91
  %97 = call ptr @__ctype_b_loc() #9
  %98 = load ptr, ptr %97, align 8
  %99 = load ptr, ptr %8, align 8
  %100 = load i32, ptr %12, align 4
  %101 = zext i32 %100 to i64
  %102 = getelementptr inbounds i8, ptr %99, i64 %101
  %103 = load i8, ptr %102, align 1
  %104 = zext i8 %103 to i32
  %105 = sext i32 %104 to i64
  %106 = getelementptr inbounds i16, ptr %98, i64 %105
  %107 = load i16, ptr %106, align 2
  %108 = zext i16 %107 to i32
  %109 = and i32 %108, 2048
  %110 = icmp ne i32 %109, 0
  br i1 %110, label %111, label %126

111:                                              ; preds = %96
  %112 = call ptr @__ctype_b_loc() #9
  %113 = load ptr, ptr %112, align 8
  %114 = load ptr, ptr %10, align 8
  %115 = load i32, ptr %13, align 4
  %116 = zext i32 %115 to i64
  %117 = getelementptr inbounds i8, ptr %114, i64 %116
  %118 = load i8, ptr %117, align 1
  %119 = zext i8 %118 to i32
  %120 = sext i32 %119 to i64
  %121 = getelementptr inbounds i16, ptr %113, i64 %120
  %122 = load i16, ptr %121, align 2
  %123 = zext i16 %122 to i32
  %124 = and i32 %123, 2048
  %125 = icmp ne i32 %124, 0
  br i1 %125, label %141, label %126

126:                                              ; preds = %111, %96
  %127 = load ptr, ptr %8, align 8
  %128 = load i32, ptr %12, align 4
  %129 = zext i32 %128 to i64
  %130 = getelementptr inbounds i8, ptr %127, i64 %129
  %131 = load i8, ptr %130, align 1
  %132 = zext i8 %131 to i32
  %133 = load ptr, ptr %10, align 8
  %134 = load i32, ptr %13, align 4
  %135 = zext i32 %134 to i64
  %136 = getelementptr inbounds i8, ptr %133, i64 %135
  %137 = load i8, ptr %136, align 1
  %138 = zext i8 %137 to i32
  %139 = icmp slt i32 %132, %138
  %140 = select i1 %139, i32 -1, i32 1
  store i32 %140, ptr %6, align 4
  br label %223

141:                                              ; preds = %111
  br label %142

142:                                              ; preds = %163, %141
  %143 = call ptr @__ctype_b_loc() #9
  %144 = load ptr, ptr %143, align 8
  %145 = load ptr, ptr %8, align 8
  %146 = load i32, ptr %12, align 4
  %147 = zext i32 %146 to i64
  %148 = getelementptr inbounds i8, ptr %145, i64 %147
  %149 = load i8, ptr %148, align 1
  %150 = zext i8 %149 to i32
  %151 = sext i32 %150 to i64
  %152 = getelementptr inbounds i16, ptr %144, i64 %151
  %153 = load i16, ptr %152, align 2
  %154 = zext i16 %153 to i32
  %155 = and i32 %154, 2048
  %156 = icmp ne i32 %155, 0
  br i1 %156, label %157, label %161

157:                                              ; preds = %142
  %158 = load i32, ptr %12, align 4
  %159 = load i32, ptr %9, align 4
  %160 = icmp ult i32 %158, %159
  br label %161

161:                                              ; preds = %157, %142
  %162 = phi i1 [ false, %142 ], [ %160, %157 ]
  br i1 %162, label %163, label %176

163:                                              ; preds = %161
  %164 = load i64, ptr %14, align 8
  %165 = mul i64 10, %164
  %166 = load ptr, ptr %8, align 8
  %167 = load i32, ptr %12, align 4
  %168 = add i32 %167, 1
  store i32 %168, ptr %12, align 4
  %169 = zext i32 %167 to i64
  %170 = getelementptr inbounds i8, ptr %166, i64 %169
  %171 = load i8, ptr %170, align 1
  %172 = zext i8 %171 to i32
  %173 = sub nsw i32 %172, 48
  %174 = sext i32 %173 to i64
  %175 = add i64 %165, %174
  store i64 %175, ptr %14, align 8
  br label %142

176:                                              ; preds = %161
  br label %177

177:                                              ; preds = %198, %176
  %178 = call ptr @__ctype_b_loc() #9
  %179 = load ptr, ptr %178, align 8
  %180 = load ptr, ptr %10, align 8
  %181 = load i32, ptr %13, align 4
  %182 = zext i32 %181 to i64
  %183 = getelementptr inbounds i8, ptr %180, i64 %182
  %184 = load i8, ptr %183, align 1
  %185 = zext i8 %184 to i32
  %186 = sext i32 %185 to i64
  %187 = getelementptr inbounds i16, ptr %179, i64 %186
  %188 = load i16, ptr %187, align 2
  %189 = zext i16 %188 to i32
  %190 = and i32 %189, 2048
  %191 = icmp ne i32 %190, 0
  br i1 %191, label %192, label %196

192:                                              ; preds = %177
  %193 = load i32, ptr %13, align 4
  %194 = load i32, ptr %11, align 4
  %195 = icmp ult i32 %193, %194
  br label %196

196:                                              ; preds = %192, %177
  %197 = phi i1 [ false, %177 ], [ %195, %192 ]
  br i1 %197, label %198, label %211

198:                                              ; preds = %196
  %199 = load i64, ptr %15, align 8
  %200 = mul i64 10, %199
  %201 = load ptr, ptr %10, align 8
  %202 = load i32, ptr %13, align 4
  %203 = add i32 %202, 1
  store i32 %203, ptr %13, align 4
  %204 = zext i32 %202 to i64
  %205 = getelementptr inbounds i8, ptr %201, i64 %204
  %206 = load i8, ptr %205, align 1
  %207 = zext i8 %206 to i32
  %208 = sub nsw i32 %207, 48
  %209 = sext i32 %208 to i64
  %210 = add i64 %200, %209
  store i64 %210, ptr %15, align 8
  br label %177

211:                                              ; preds = %196
  %212 = load i64, ptr %14, align 8
  %213 = load i64, ptr %15, align 8
  %214 = icmp ult i64 %212, %213
  br i1 %214, label %215, label %216

215:                                              ; preds = %211
  store i32 -1, ptr %6, align 4
  br label %223

216:                                              ; preds = %211
  %217 = load i64, ptr %14, align 8
  %218 = load i64, ptr %15, align 8
  %219 = icmp ugt i64 %217, %218
  br i1 %219, label %220, label %221

220:                                              ; preds = %216
  store i32 1, ptr %6, align 4
  br label %223

221:                                              ; preds = %216
  br label %222

222:                                              ; preds = %221
  br i1 true, label %16, label %223

223:                                              ; preds = %222, %220, %215, %126, %95, %90, %85
  %224 = load i32, ptr %6, align 4
  ret i32 %224
}