; Function Attrs: nofree nosync nounwind memory(read, inaccessiblemem: none) uwtable
define i32 @cli_bcapi_version_compare(ptr nocapture noundef readnone %0, ptr nocapture noundef readonly %1, i32 noundef %2, ptr nocapture noundef readonly %3, i32 noundef %4) local_unnamed_addr #18 {
  %6 = zext i32 %4 to i64
  %7 = zext i32 %2 to i64
  br label %8

8:                                                ; preds = %78, %5
  %.052 = phi i32 [ 0, %5 ], [ %.254.lcssa, %78 ]
  %.050 = phi i32 [ 0, %5 ], [ %.2.lcssa, %78 ]
  %.048 = phi i64 [ 0, %5 ], [ %.149.lcssa, %78 ]
  %.0 = phi i64 [ 0, %5 ], [ %.1.lcssa, %78 ]
  %9 = icmp ult i32 %.052, %2
  %10 = icmp ult i32 %.050, %4
  %or.cond66 = select i1 %9, i1 %10, i1 false
  br i1 %or.cond66, label %.lr.ph.preheader, label %.critedge

.lr.ph.preheader:                                 ; preds = %8
  %11 = zext i32 %.050 to i64
  %12 = zext i32 %.052 to i64
  br label %.lr.ph

.lr.ph:                                           ; preds = %.lr.ph.preheader, %25
  %indvars.iv109 = phi i64 [ %12, %.lr.ph.preheader ], [ %indvars.iv.next110, %25 ]
  %indvars.iv = phi i64 [ %11, %.lr.ph.preheader ], [ %indvars.iv.next, %25 ]
  %13 = getelementptr inbounds i8, ptr %1, i64 %indvars.iv109
  %14 = load i8, ptr %13, align 1
  %15 = getelementptr inbounds i8, ptr %3, i64 %indvars.iv
  %16 = load i8, ptr %15, align 1
  %17 = icmp eq i8 %14, %16
  br i1 %17, label %18, label %.critedge.loopexit

18:                                               ; preds = %.lr.ph
  %19 = tail call ptr @__ctype_b_loc() #31
  %20 = load ptr, ptr %19, align 8
  %21 = zext i8 %14 to i64
  %22 = getelementptr inbounds i16, ptr %20, i64 %21
  %23 = load i16, ptr %22, align 2
  %24 = and i16 %23, 2048
  %.not = icmp eq i16 %24, 0
  br i1 %.not, label %25, label %.critedge.loopexit

25:                                               ; preds = %18
  %indvars.iv.next110 = add nuw nsw i64 %indvars.iv109, 1
  %indvars.iv.next = add nuw nsw i64 %indvars.iv, 1
  %26 = icmp ult i64 %indvars.iv.next110, %7
  %27 = icmp ult i64 %indvars.iv.next, %6
  %or.cond = select i1 %26, i1 %27, i1 false
  br i1 %or.cond, label %.lr.ph, label %.critedge.loopexit

.critedge.loopexit:                               ; preds = %18, %.lr.ph, %25
  %.153.lcssa.ph.ph.in = phi i64 [ %indvars.iv109, %18 ], [ %indvars.iv109, %.lr.ph ], [ %indvars.iv.next110, %25 ]
  %.151.lcssa.ph.ph.in = phi i64 [ %indvars.iv, %18 ], [ %indvars.iv, %.lr.ph ], [ %indvars.iv.next, %25 ]
  %.151.lcssa.ph.ph = trunc i64 %.151.lcssa.ph.ph.in to i32
  %.153.lcssa.ph.ph = trunc i64 %.153.lcssa.ph.ph.in to i32
  br label %.critedge

.critedge:                                        ; preds = %.critedge.loopexit, %8
  %.153.lcssa = phi i32 [ %.052, %8 ], [ %.153.lcssa.ph.ph, %.critedge.loopexit ]
  %.151.lcssa = phi i32 [ %.050, %8 ], [ %.151.lcssa.ph.ph, %.critedge.loopexit ]
  %28 = icmp eq i32 %.153.lcssa, %2
  %29 = icmp eq i32 %.151.lcssa, %4
  %brmerge = select i1 %28, i1 true, i1 %29
  br i1 %brmerge, label %.loopexit.split.loop.exit91, label %30

30:                                               ; preds = %.critedge
  %31 = tail call ptr @__ctype_b_loc() #31
  %32 = load ptr, ptr %31, align 8
  %33 = zext i32 %.153.lcssa to i64
  %34 = getelementptr inbounds i8, ptr %1, i64 %33
  %35 = load i8, ptr %34, align 1
  %36 = zext i8 %35 to i64
  %37 = getelementptr inbounds i16, ptr %32, i64 %36
  %38 = load i16, ptr %37, align 2
  %39 = and i16 %38, 2048
  %.not61 = icmp eq i16 %39, 0
  %.phi.trans.insert = zext i32 %.151.lcssa to i64
  %.phi.trans.insert123 = getelementptr inbounds i8, ptr %3, i64 %.phi.trans.insert
  %.pre = load i8, ptr %.phi.trans.insert123, align 1
  br i1 %.not61, label %split, label %40

40:                                               ; preds = %30
  %41 = zext i8 %.pre to i64
  %42 = getelementptr inbounds i16, ptr %32, i64 %41
  %43 = load i16, ptr %42, align 2
  %44 = and i16 %43, 2048
  %.not62 = icmp eq i16 %44, 0
  br i1 %.not62, label %split, label %.preheader64

.preheader64:                                     ; preds = %40
  %45 = icmp ult i32 %.153.lcssa, %2
  br i1 %45, label %.lr.ph81, label %.preheader

split:                                            ; preds = %40, %30
  %46 = icmp ult i8 %35, %.pre
  %47 = select i1 %46, i32 -1, i32 1
  br label %.loopexit

.preheader.loopexit:                              ; preds = %.lr.ph81
  %48 = trunc nuw i64 %indvars.iv.next115 to i32
  br label %.preheader

.preheader:                                       ; preds = %.preheader.loopexit, %.preheader64
  %.254.lcssa = phi i32 [ %.153.lcssa, %.preheader64 ], [ %48, %.preheader.loopexit ]
  %.149.lcssa = phi i64 [ %.048, %.preheader64 ], [ %53, %.preheader.loopexit ]
  %49 = icmp ult i32 %.151.lcssa, %4
  br i1 %49, label %.lr.ph86, label %._crit_edge

.lr.ph81:                                         ; preds = %.preheader64, %.lr.ph81
  %indvars.iv114 = phi i64 [ %indvars.iv.next115, %.lr.ph81 ], [ %33, %.preheader64 ]
  %50 = phi i64 [ %56, %.lr.ph81 ], [ %36, %.preheader64 ]
  %.14980 = phi i64 [ %53, %.lr.ph81 ], [ %.048, %.preheader64 ]
  %51 = mul i64 %.14980, 10
  %indvars.iv.next115 = add nuw nsw i64 %indvars.iv114, 1
  %52 = add i64 %51, -48
  %53 = add i64 %52, %50
  %54 = getelementptr inbounds i8, ptr %1, i64 %indvars.iv.next115
  %55 = load i8, ptr %54, align 1
  %56 = zext i8 %55 to i64
  %57 = getelementptr inbounds i16, ptr %32, i64 %56
  %58 = load i16, ptr %57, align 2
  %59 = and i16 %58, 2048
  %60 = icmp ne i16 %59, 0
  %61 = icmp ult i64 %indvars.iv.next115, %7
  %62 = and i1 %61, %60
  br i1 %62, label %.lr.ph81, label %.preheader.loopexit

.lr.ph86:                                         ; preds = %.preheader, %.lr.ph86
  %indvars.iv118 = phi i64 [ %indvars.iv.next119, %.lr.ph86 ], [ %.phi.trans.insert, %.preheader ]
  %63 = phi i64 [ %69, %.lr.ph86 ], [ %41, %.preheader ]
  %.185 = phi i64 [ %66, %.lr.ph86 ], [ %.0, %.preheader ]
  %64 = mul i64 %.185, 10
  %indvars.iv.next119 = add nuw nsw i64 %indvars.iv118, 1
  %65 = add i64 %64, -48
  %66 = add i64 %65, %63
  %67 = getelementptr inbounds i8, ptr %3, i64 %indvars.iv.next119
  %68 = load i8, ptr %67, align 1
  %69 = zext i8 %68 to i64
  %70 = getelementptr inbounds i16, ptr %32, i64 %69
  %71 = load i16, ptr %70, align 2
  %72 = and i16 %71, 2048
  %73 = icmp ne i16 %72, 0
  %74 = icmp ult i64 %indvars.iv.next119, %6
  %75 = and i1 %74, %73
  br i1 %75, label %.lr.ph86, label %._crit_edge.loopexit

._crit_edge.loopexit:                             ; preds = %.lr.ph86
  %76 = trunc nuw i64 %indvars.iv.next119 to i32
  br label %._crit_edge

._crit_edge:                                      ; preds = %._crit_edge.loopexit, %.preheader
  %.2.lcssa = phi i32 [ %.151.lcssa, %.preheader ], [ %76, %._crit_edge.loopexit ]
  %.1.lcssa = phi i64 [ %.0, %.preheader ], [ %66, %._crit_edge.loopexit ]
  %77 = icmp ult i64 %.149.lcssa, %.1.lcssa
  br i1 %77, label %.loopexit, label %78

78:                                               ; preds = %._crit_edge
  %79 = icmp ugt i64 %.149.lcssa, %.1.lcssa
  br i1 %79, label %.loopexit, label %8

.loopexit.split.loop.exit91:                      ; preds = %.critedge
  %or.cond63.le = select i1 %28, i1 %29, i1 false
  %not.or.cond63.le = xor i1 %or.cond63.le, true
  %.mux.le = sext i1 %not.or.cond63.le to i32
  %.mux.mux.le = select i1 %28, i32 %.mux.le, i32 1
  br label %.loopexit

.loopexit:                                        ; preds = %._crit_edge, %78, %.loopexit.split.loop.exit91, %split
  %.055 = phi i32 [ %47, %split ], [ %.mux.mux.le, %.loopexit.split.loop.exit91 ], [ -1, %._crit_edge ], [ 1, %78 ]
  ret i32 %.055
}